   1               		.file	"test_sequence_001.c"
   2               	__SREG__ = 0x3f
   3               	__SP_H__ = 0x3e
   4               	__SP_L__ = 0x3d
   5               	__CCP__  = 0x34
   6               	__tmp_reg__ = 0
   7               	__zero_reg__ = 1
  15               	.Ltext0:
  17               	test_001_001_execute:
  18               	.LFB53:
  19               	.LM1:
  20               	/* prologue: function */
  21               	/* frame size = 0 */
  22               	.LM2:
  23 0000 81E0      		ldi r24,lo8(1)
  24 0002 90E0      		ldi r25,hi8(1)
  25 0004 9093 0000 		sts (test_step)+1,r25
  26 0008 8093 0000 		sts test_step,r24
  27               	.LBB32:
  28               	.LBB33:
  29               	.LBB34:
  30               	.LBB35:
  31               	.LM3:
  32 000c 2091 8400 		lds r18,132
  33 0010 3091 8500 		lds r19,(132)+1
  34               	.LVL0:
  35               	.L2:
  36               	.LBE35:
  37               	.LBE34:
  38               	.LBE33:
  39               	.LBE32:
  40               	.LBB36:
  41               	.LBB37:
  42               	.LBB38:
  43               	.LBB39:
  44 0014 8091 8400 		lds r24,132
  45 0018 9091 8500 		lds r25,(132)+1
  46               	.LBE39:
  47               	.LBE38:
  48               	.LBE37:
  49               	.LBE36:
  50               	.LM4:
  51 001c 2817      		cp r18,r24
  52 001e 3907      		cpc r19,r25
  53 0020 01F0      		breq .L2
  54               	/* epilogue start */
  55               	.LM5:
  56 0022 0895      		ret
  57               	.LFE53:
  59               		.data
  60               	.LC0:
  61 0000 6F75 7420 		.string	"out of time window"
  61      6F66 2074 
  61      696D 6520 
  61      7769 6E64 
  61      6F77 00
  62               		.text
  64               	test_001_002_execute:
  65               	.LFB54:
  66               	.LM6:
  67 0024 EF92      		push r14
  68 0026 FF92      		push r15
  69 0028 0F93      		push r16
  70 002a 1F93      		push r17
  71               	/* prologue: function */
  72               	/* frame size = 0 */
  73               	.LM7:
  74 002c 81E0      		ldi r24,lo8(1)
  75 002e 90E0      		ldi r25,hi8(1)
  76 0030 9093 0000 		sts (test_step)+1,r25
  77 0034 8093 0000 		sts test_step,r24
  78               	.LBB40:
  79               	.LBB41:
  80               	.LBB42:
  81               	.LBB43:
  82               	.LM8:
  83 0038 0091 8400 		lds r16,132
  84 003c 1091 8500 		lds r17,(132)+1
  85               	.LVL1:
  86               	.LBE43:
  87               	.LBE42:
  88               	.LBE41:
  89               	.LBE40:
  90               	.LM9:
  91 0040 84E6      		ldi r24,lo8(100)
  92 0042 90E0      		ldi r25,hi8(100)
  93 0044 0E94 0000 		call chThdSleep
  94               	.LM10:
  95 0048 C801      		movw r24,r16
  96 004a 8C59      		subi r24,lo8(-(100))
  97 004c 9F4F      		sbci r25,hi8(-(100))
  98 004e 0859      		subi r16,lo8(-(104))
  99 0050 1F4F      		sbci r17,hi8(-(104))
 100 0052 B801      		movw r22,r16
 101 0054 40E0      		ldi r20,lo8(.LC0)
 102 0056 50E0      		ldi r21,hi8(.LC0)
 103 0058 0E94 0000 		call _test_assert_time_window
 104 005c 8823      		tst r24
 105 005e 01F0      		breq .L9
 106               	.L8:
 107               	/* epilogue start */
 108               	.LM11:
 109 0060 1F91      		pop r17
 110 0062 0F91      		pop r16
 111               	.LVL2:
 112 0064 FF90      		pop r15
 113 0066 EF90      		pop r14
 114 0068 0895      		ret
 115               	.LVL3:
 116               	.L9:
 117               	.LM12:
 118 006a 82E0      		ldi r24,lo8(2)
 119 006c 90E0      		ldi r25,hi8(2)
 120 006e 9093 0000 		sts (test_step)+1,r25
 121 0072 8093 0000 		sts test_step,r24
 122               	.LBB44:
 123               	.LBB45:
 124               	.LBB46:
 125               	.LBB47:
 126               	.LM13:
 127 0076 0091 8400 		lds r16,132
 128 007a 1091 8500 		lds r17,(132)+1
 129               	.LVL4:
 130               	.LBE47:
 131               	.LBE46:
 132               	.LBE45:
 133               	.LBE44:
 134               	.LM14:
 135 007e 87E0      		ldi r24,lo8(7)
 136 0080 90E0      		ldi r25,hi8(7)
 137 0082 0E94 0000 		call chThdSleep
 138               	.LM15:
 139 0086 C801      		movw r24,r16
 140 0088 0796      		adiw r24,7
 141 008a 055F      		subi r16,lo8(-(11))
 142 008c 1F4F      		sbci r17,hi8(-(11))
 143 008e B801      		movw r22,r16
 144 0090 40E0      		ldi r20,lo8(.LC0)
 145 0092 50E0      		ldi r21,hi8(.LC0)
 146 0094 0E94 0000 		call _test_assert_time_window
 147 0098 8823      		tst r24
 148 009a 01F4      		brne .L8
 149               	.LM16:
 150 009c 83E0      		ldi r24,lo8(3)
 151 009e 90E0      		ldi r25,hi8(3)
 152 00a0 9093 0000 		sts (test_step)+1,r25
 153 00a4 8093 0000 		sts test_step,r24
 154               	.LBB48:
 155               	.LBB49:
 156               	.LBB50:
 157               	.LBB51:
 158               	.LM17:
 159 00a8 0091 8400 		lds r16,132
 160 00ac 1091 8500 		lds r17,(132)+1
 161               	.LVL5:
 162               	.LBE51:
 163               	.LBE50:
 164               	.LBE49:
 165               	.LBE48:
 166               	.LM18:
 167 00b0 88E5      		ldi r24,lo8(6232)
 168 00b2 98E1      		ldi r25,hi8(6232)
 169 00b4 0E94 0000 		call chThdSleep
 170               	.LM19:
 171 00b8 C801      		movw r24,r16
 172 00ba 885A      		subi r24,lo8(-(6232))
 173 00bc 974E      		sbci r25,hi8(-(6232))
 174 00be 045A      		subi r16,lo8(-(6236))
 175 00c0 174E      		sbci r17,hi8(-(6236))
 176 00c2 B801      		movw r22,r16
 177 00c4 40E0      		ldi r20,lo8(.LC0)
 178 00c6 50E0      		ldi r21,hi8(.LC0)
 179 00c8 0E94 0000 		call _test_assert_time_window
 180 00cc 8823      		tst r24
 181 00ce 01F4      		brne .L8
 182               	.LM20:
 183 00d0 84E0      		ldi r24,lo8(4)
 184 00d2 90E0      		ldi r25,hi8(4)
 185 00d4 9093 0000 		sts (test_step)+1,r25
 186 00d8 8093 0000 		sts test_step,r24
 187               	.LBB52:
 188               	.LBB53:
 189               	.LBB54:
 190               	.LBB55:
 191               	.LM21:
 192 00dc 0091 8400 		lds r16,132
 193 00e0 1091 8500 		lds r17,(132)+1
 194               	.LVL6:
 195               	.LBE55:
 196               	.LBE54:
 197               	.LBE53:
 198               	.LBE52:
 199               	.LM22:
 200 00e4 8BE6      		ldi r24,lo8(-3221)
 201 00e6 93EF      		ldi r25,hi8(-3221)
 202 00e8 0E94 0000 		call chThdSleep
 203               	.LM23:
 204 00ec C801      		movw r24,r16
 205 00ee 8559      		subi r24,lo8(-(-3221))
 206 00f0 9C40      		sbci r25,hi8(-(-3221))
 207 00f2 0159      		subi r16,lo8(-(-3217))
 208 00f4 1C40      		sbci r17,hi8(-(-3217))
 209 00f6 B801      		movw r22,r16
 210 00f8 40E0      		ldi r20,lo8(.LC0)
 211 00fa 50E0      		ldi r21,hi8(.LC0)
 212 00fc 0E94 0000 		call _test_assert_time_window
 213 0100 8823      		tst r24
 214 0102 01F0      		breq .+2
 215 0104 00C0      		rjmp .L8
 216               	.LM24:
 217 0106 85E0      		ldi r24,lo8(5)
 218 0108 90E0      		ldi r25,hi8(5)
 219 010a 9093 0000 		sts (test_step)+1,r25
 220 010e 8093 0000 		sts test_step,r24
 221               	.LBB56:
 222               	.LBB57:
 223               	.LBB58:
 224               	.LBB59:
 225               	.LM25:
 226 0112 0091 8400 		lds r16,132
 227 0116 1091 8500 		lds r17,(132)+1
 228               	.LVL7:
 229               	.LBE59:
 230               	.LBE58:
 231               	.LBE57:
 232               	.LBE56:
 233               	.LM26:
 234 011a 84E6      		ldi r24,lo8(100)
 235 011c E82E      		mov r14,r24
 236 011e F12C      		mov r15,__zero_reg__
 237 0120 E00E      		add r14,r16
 238 0122 F11E      		adc r15,r17
 239 0124 C701      		movw r24,r14
 240 0126 0E94 0000 		call chThdSleepUntil
 241               	.LM27:
 242 012a 0859      		subi r16,lo8(-(104))
 243 012c 1F4F      		sbci r17,hi8(-(104))
 244 012e C701      		movw r24,r14
 245 0130 B801      		movw r22,r16
 246 0132 40E0      		ldi r20,lo8(.LC0)
 247 0134 50E0      		ldi r21,hi8(.LC0)
 248 0136 0E94 0000 		call _test_assert_time_window
 249 013a 00C0      		rjmp .L8
 250               	.LFE54:
 252               	.global	test_sequence_001
 253               		.data
 256               	test_sequence_001:
 257 0013 0000      		.word	test_001_001
 258 0015 0000      		.word	test_001_002
 259 0017 0000      		.word	0
 260               	.LC1:
 261 0019 5379 7374 		.string	"System Tick Counter functionality"
 261      656D 2054 
 261      6963 6B20 
 261      436F 756E 
 261      7465 7220 
 264               	test_001_001:
 265 003b 0000      		.word	.LC1
 266 003d 0000      		.word	0
 267 003f 0000      		.word	0
 268 0041 0000      		.word	gs(test_001_001_execute)
 269               	.LC2:
 270 0043 5468 7265 		.string	"Thread Sleep functionality"
 270      6164 2053 
 270      6C65 6570 
 270      2066 756E 
 270      6374 696F 
 273               	test_001_002:
 274 005e 0000      		.word	.LC2
 275 0060 0000      		.word	0
 276 0062 0000      		.word	0
 277 0064 0000      		.word	gs(test_001_002_execute)
 310               	.Letext0:
DEFINED SYMBOLS
                            *ABS*:00000000 test_sequence_001.c
C:\DOCUME~1\ADMINI~1\LOCALS~1\Temp/ccviWbMv.s:2      *ABS*:0000003f __SREG__
C:\DOCUME~1\ADMINI~1\LOCALS~1\Temp/ccviWbMv.s:3      *ABS*:0000003e __SP_H__
C:\DOCUME~1\ADMINI~1\LOCALS~1\Temp/ccviWbMv.s:4      *ABS*:0000003d __SP_L__
C:\DOCUME~1\ADMINI~1\LOCALS~1\Temp/ccviWbMv.s:5      *ABS*:00000034 __CCP__
C:\DOCUME~1\ADMINI~1\LOCALS~1\Temp/ccviWbMv.s:6      *ABS*:00000000 __tmp_reg__
C:\DOCUME~1\ADMINI~1\LOCALS~1\Temp/ccviWbMv.s:7      *ABS*:00000001 __zero_reg__
C:\DOCUME~1\ADMINI~1\LOCALS~1\Temp/ccviWbMv.s:17     .text:00000000 test_001_001_execute
C:\DOCUME~1\ADMINI~1\LOCALS~1\Temp/ccviWbMv.s:64     .text:00000024 test_001_002_execute
C:\DOCUME~1\ADMINI~1\LOCALS~1\Temp/ccviWbMv.s:256    .data:00000013 test_sequence_001
C:\DOCUME~1\ADMINI~1\LOCALS~1\Temp/ccviWbMv.s:264    .data:0000003b test_001_001
C:\DOCUME~1\ADMINI~1\LOCALS~1\Temp/ccviWbMv.s:273    .data:0000005e test_001_002

UNDEFINED SYMBOLS
test_step
chThdSleep
_test_assert_time_window
chThdSleepUntil
__do_copy_data
